target datalayout = "e-m:e-p270:32:32-p271:32:32-p272:64:64-i64:64-i128:128-f80:128-n8:16:32:64-S128"
target triple = "x86_64-unknown-linux-gnu"

; Function Attrs: mustprogress uwtable
define internal noundef signext i8 @_ZN6icu_75L17enumTailoredRangeEPKviij(ptr noundef %context, i32 noundef %start, i32 noundef %end, i32 noundef %ce32) #0 {
entry:
  %retval = alloca i8, align 1
  %context.addr = alloca ptr, align 8
  %start.addr = alloca i32, align 4
  %end.addr = alloca i32, align 4
  %ce32.addr = alloca i32, align 4
  %ts = alloca ptr, align 8
  store ptr %context, ptr %context.addr, align 8
  store i32 %start, ptr %start.addr, align 4
  store i32 %end, ptr %end.addr, align 4
  store i32 %ce32, ptr %ce32.addr, align 4
  %0 = load i32, ptr %ce32.addr, align 4
  %cmp = icmp eq i32 %0, 192
  br i1 %cmp, label %if.then, label %if.end

if.then:                                          ; preds = %entry
  store i8 1, ptr %retval, align 1
  br label %return

if.end:                                           ; preds = %entry
  %1 = load ptr, ptr %context.addr, align 8
  store ptr %1, ptr %ts, align 8
  %2 = load ptr, ptr %ts, align 8
  %3 = load i32, ptr %start.addr, align 4
  %4 = load i32, ptr %end.addr, align 4
  %5 = load i32, ptr %ce32.addr, align 4
  %call = call noundef signext i8 @_ZN6icu_7511TailoredSet10handleCE32Eiij(ptr noundef nonnull align 8 dereferenceable(100) %2, i32 noundef %3, i32 noundef %4, i32 noundef %5)
  store i8 %call, ptr %retval, align 1
  br label %return

return:                                           ; preds = %if.end, %if.then
  %6 = load i8, ptr %retval, align 1
  ret i8 %6
}