; Function Attrs: mustprogress uwtable
define internal noundef signext i8 @_ZN6icu_75L17enumTailoredRangeEPKviij(ptr noundef %context, i32 noundef %start, i32 noundef %end, i32 noundef %ce32) #0 {
entry:
  %cmp = icmp eq i32 %ce32, 192
  br i1 %cmp, label %return, label %if.end

if.end:                                           ; preds = %entry
  %call = tail call noundef signext i8 @_ZN6icu_7511TailoredSet10handleCE32Eiij(ptr noundef nonnull align 8 dereferenceable(100) %context, i32 noundef %start, i32 noundef %end, i32 noundef %ce32), !range !4
  br label %return

return:                                           ; preds = %entry, %if.end
  %retval.0 = phi i8 [ %call, %if.end ], [ 1, %entry ]
  ret i8 %retval.0
}